; Function Attrs: mustprogress uwtable
define hidden noundef i32 @_ZN9SampleICC6Read16ERSiPvi(ptr noundef nonnull align 8 dereferenceable(16) %istream, ptr noundef %pBuf16, i32 noundef %num) local_unnamed_addr #6 {
entry:
  %vtable.i = load ptr, ptr %istream, align 8
  %vbase.offset.ptr.i = getelementptr i8, ptr %vtable.i, i64 -24
  %vbase.offset.i = load i64, ptr %vbase.offset.ptr.i, align 8
  %add.ptr.i = getelementptr inbounds i8, ptr %istream, i64 %vbase.offset.i
  %call.i = tail call noundef zeroext i1 @_ZNKSt9basic_iosIcSt11char_traitsIcEE4goodEv(ptr noundef nonnull align 8 dereferenceable(264) %add.ptr.i)
  br i1 %call.i, label %_ZN9SampleICC5Read8ERSiPvi.exit, label %_ZN9SampleICC11Swap16ArrayEPvi.exit

_ZN9SampleICC5Read8ERSiPvi.exit:                  ; preds = %entry
  %shl = shl i32 %num, 1
  %conv.i = sext i32 %shl to i64
  %call1.i = tail call noundef nonnull align 8 dereferenceable(16) ptr @_ZNSi4readEPcl(ptr noundef nonnull align 8 dereferenceable(16) %istream, ptr noundef %pBuf16, i64 noundef %conv.i)
  %vtable2.i = load ptr, ptr %istream, align 8
  %vbase.offset.ptr3.i = getelementptr i8, ptr %vtable2.i, i64 -24
  %vbase.offset4.i = load i64, ptr %vbase.offset.ptr3.i, align 8
  %add.ptr5.i = getelementptr inbounds i8, ptr %istream, i64 %vbase.offset4.i
  %call6.i = tail call noundef zeroext i1 @_ZNKSt9basic_iosIcSt11char_traitsIcEE4goodEv(ptr noundef nonnull align 8 dereferenceable(264) %add.ptr5.i)
  %0 = ashr exact i32 %shl, 1
  %shr = select i1 %call6.i, i32 %0, i32 0
  %cmp4.i = icmp sgt i32 %shr, 0
  br i1 %cmp4.i, label %while.body.i, label %_ZN9SampleICC11Swap16ArrayEPvi.exit

while.body.i:                                     ; preds = %_ZN9SampleICC5Read8ERSiPvi.exit, %while.body.i
  %ptr.06.i = phi ptr [ %add.ptr.i4, %while.body.i ], [ %pBuf16, %_ZN9SampleICC5Read8ERSiPvi.exit ]
  %num.addr.05.i = phi i32 [ %dec.i, %while.body.i ], [ %0, %_ZN9SampleICC5Read8ERSiPvi.exit ]
  %arrayidx1.i = getelementptr inbounds i8, ptr %ptr.06.i, i64 1
  %1 = load i8, ptr %ptr.06.i, align 1
  %2 = load i8, ptr %arrayidx1.i, align 1
  store i8 %2, ptr %ptr.06.i, align 1
  store i8 %1, ptr %arrayidx1.i, align 1
  %add.ptr.i4 = getelementptr inbounds i8, ptr %ptr.06.i, i64 2
  %dec.i = add nsw i32 %num.addr.05.i, -1
  %cmp.i = icmp ugt i32 %num.addr.05.i, 1
  br i1 %cmp.i, label %while.body.i, label %_ZN9SampleICC11Swap16ArrayEPvi.exit, !llvm.loop !7

_ZN9SampleICC11Swap16ArrayEPvi.exit:              ; preds = %while.body.i, %entry, %_ZN9SampleICC5Read8ERSiPvi.exit
  %shr8 = phi i32 [ %shr, %_ZN9SampleICC5Read8ERSiPvi.exit ], [ 0, %entry ], [ %shr, %while.body.i ]
  ret i32 %shr8
}